target datalayout = "e-m:e-p270:32:32-p271:32:32-p272:64:64-i64:64-i128:128-f80:128-n8:16:32:64-S128"
target triple = "x86_64-pc-linux-gnu"

%"class.std::__cxx11::basic_string" = type { %"struct.std::__cxx11::basic_string<char>::_Alloc_hider", i64, %union.anon }
%"struct.std::__cxx11::basic_string<char>::_Alloc_hider" = type { ptr }
%union.anon = type { i64, [8 x i8] }
%struct.cmFileInstaller = type { %struct.cmFileCopier.base, i32, i32, i8, i8, i8, i8, i32, %"class.std::__cxx11::basic_string", %"class.std::__cxx11::basic_string" }
%struct.cmFileCopier.base = type <{ ptr, ptr, ptr, ptr, i8, [7 x i8], %class.cmFileTimeCache, i8, [3 x i8], i32, i32, [4 x i8], %"class.std::vector", ptr, i8, i8, i8, i8, [4 x i8], %"class.std::__cxx11::basic_string", %"class.std::__cxx11::basic_string", %"class.std::vector.8", i32 }>
%class.cmFileTimeCache = type { %"class.std::unordered_map" }
%"class.std::unordered_map" = type { %"class.std::_Hashtable" }
%"class.std::_Hashtable" = type { ptr, i64, %"struct.std::__detail::_Hash_node_base", i64, %"struct.std::__detail::_Prime_rehash_policy", ptr }
%"struct.std::__detail::_Hash_node_base" = type { ptr }
%"struct.std::__detail::_Prime_rehash_policy" = type { float, i64 }
%"class.std::vector" = type { %"struct.std::_Vector_base" }
%"struct.std::_Vector_base" = type { %"struct.std::_Vector_base<cmFileCopier::MatchRule, std::allocator<cmFileCopier::MatchRule>>::_Vector_impl" }
%"struct.std::_Vector_base<cmFileCopier::MatchRule, std::allocator<cmFileCopier::MatchRule>>::_Vector_impl" = type { %"struct.std::_Vector_base<cmFileCopier::MatchRule, std::allocator<cmFileCopier::MatchRule>>::_Vector_impl_data" }
%"struct.std::_Vector_base<cmFileCopier::MatchRule, std::allocator<cmFileCopier::MatchRule>>::_Vector_impl_data" = type { ptr, ptr, ptr }
%"class.std::vector.8" = type { %"struct.std::_Vector_base.9" }
%"struct.std::_Vector_base.9" = type { %"struct.std::_Vector_base<std::__cxx11::basic_string<char>, std::allocator<std::__cxx11::basic_string<char>>>::_Vector_impl" }
%"struct.std::_Vector_base<std::__cxx11::basic_string<char>, std::allocator<std::__cxx11::basic_string<char>>>::_Vector_impl" = type { %"struct.std::_Vector_base<std::__cxx11::basic_string<char>, std::allocator<std::__cxx11::basic_string<char>>>::_Vector_impl_data" }
%"struct.std::_Vector_base<std::__cxx11::basic_string<char>, std::allocator<std::__cxx11::basic_string<char>>>::_Vector_impl_data" = type { ptr, ptr, ptr }

; Function Attrs: mustprogress uwtable
define dso_local noundef zeroext i1 @_ZN15cmFileInstaller13ReportMissingERKNSt7__cxx1112basic_stringIcSt11char_traitsIcESaIcEEE(ptr noundef nonnull align 8 dereferenceable(328) %0, ptr noundef nonnull align 8 dereferenceable(32) %1) unnamed_addr #4 align 2 {
  %3 = alloca ptr, align 8
  %4 = alloca ptr, align 8
  store ptr %0, ptr %3, align 8
  store ptr %1, ptr %4, align 8
  %5 = load ptr, ptr %3, align 8
  %6 = getelementptr inbounds %struct.cmFileInstaller, ptr %5, i32 0, i32 3
  %7 = load i8, ptr %6, align 4
  %8 = trunc i8 %7 to i1
  br i1 %8, label %12, label %9

9:                                                ; preds = %2
  %10 = load ptr, ptr %4, align 8
  %11 = call noundef zeroext i1 @_ZN12cmFileCopier13ReportMissingERKNSt7__cxx1112basic_stringIcSt11char_traitsIcESaIcEEE(ptr noundef nonnull align 8 dereferenceable(244) %5, ptr noundef nonnull align 8 dereferenceable(32) %10)
  br label %12

12:                                               ; preds = %9, %2
  %13 = phi i1 [ true, %2 ], [ %11, %9 ]
  ret i1 %13
}